target datalayout = "e-m:e-p270:32:32-p271:32:32-p272:64:64-i64:64-i128:128-f80:128-n8:16:32:64-S128"
target triple = "x86_64-pc-linux-gnu"

%struct.gstack_s = type { ptr, ptr, %struct.list_s, %struct.list_s, %struct.list_s, ptr }
%struct.list_s = type { ptr, ptr }
%struct.item_s = type { i32, %union.s, ptr, ptr }
%union.s = type { ptr }

@G = internal global ptr null, align 8
@S = internal global ptr null, align 8
@Key = internal constant [4 x i8] c"key\00", align 1
@.str.12 = private unnamed_addr constant [1 x i8] zeroinitializer, align 1

; Function Attrs: inlinehint nounwind uwtable
define internal zeroext i1 @streq(ptr noundef %0, ptr noundef %1) #6 {
  %3 = alloca ptr, align 8
  %4 = alloca ptr, align 8
  store ptr %0, ptr %3, align 8, !tbaa !9
  store ptr %1, ptr %4, align 8, !tbaa !9
  %5 = load ptr, ptr %3, align 8, !tbaa !9
  %6 = load ptr, ptr %4, align 8, !tbaa !9
  %7 = call i32 @strcmp(ptr noundef %5, ptr noundef %6) #17
  %8 = icmp eq i32 %7, 0
  ret i1 %8
}

; Function Attrs: nounwind uwtable
define internal void @bindattrs(i32 noundef %0) #0 {
  %2 = alloca i32, align 4
  %3 = alloca ptr, align 8
  %4 = alloca ptr, align 8
  store i32 %0, ptr %2, align 4, !tbaa !3
  call void @llvm.lifetime.start.p0(i64 8, ptr %3) #14
  call void @llvm.lifetime.start.p0(i64 8, ptr %4) #14
  %5 = load ptr, ptr @S, align 8, !tbaa !22
  %6 = getelementptr inbounds nuw %struct.gstack_s, ptr %5, i32 0, i32 4
  %7 = getelementptr inbounds nuw %struct.list_s, ptr %6, i32 0, i32 0
  %8 = load ptr, ptr %7, align 8, !tbaa !31
  store ptr %8, ptr %3, align 8, !tbaa !35
  br label %9

9:                                                ; preds = %47, %1
  %10 = load ptr, ptr %3, align 8, !tbaa !35
  %11 = icmp ne ptr %10, null
  br i1 %11, label %12, label %51

12:                                               ; preds = %9
  %13 = load ptr, ptr %3, align 8, !tbaa !35
  %14 = getelementptr inbounds nuw %struct.item_s, ptr %13, i32 0, i32 1
  %15 = load ptr, ptr %14, align 8, !tbaa !14
  store ptr %15, ptr %4, align 8, !tbaa !9
  %16 = load i32, ptr %2, align 4, !tbaa !3
  %17 = icmp eq i32 %16, 2
  br i1 %17, label %18, label %22

18:                                               ; preds = %12
  %19 = load ptr, ptr %4, align 8, !tbaa !9
  %20 = call zeroext i1 @streq(ptr noundef %19, ptr noundef @Key)
  br i1 %20, label %21, label %22

21:                                               ; preds = %18
  br label %47

22:                                               ; preds = %18, %12
  %23 = load ptr, ptr @S, align 8, !tbaa !22
  %24 = getelementptr inbounds nuw %struct.gstack_s, ptr %23, i32 0, i32 0
  %25 = load ptr, ptr %24, align 8, !tbaa !44
  %26 = load i32, ptr %2, align 4, !tbaa !3
  %27 = load ptr, ptr %4, align 8, !tbaa !9
  %28 = call ptr @agattr(ptr noundef %25, i32 noundef %26, ptr noundef %27, ptr noundef null)
  %29 = load ptr, ptr %3, align 8, !tbaa !35
  %30 = getelementptr inbounds nuw %struct.item_s, ptr %29, i32 0, i32 1
  store ptr %28, ptr %30, align 8, !tbaa !14
  %31 = icmp eq ptr %28, null
  br i1 %31, label %32, label %41

32:                                               ; preds = %22
  %33 = load ptr, ptr @S, align 8, !tbaa !22
  %34 = getelementptr inbounds nuw %struct.gstack_s, ptr %33, i32 0, i32 0
  %35 = load ptr, ptr %34, align 8, !tbaa !44
  %36 = load i32, ptr %2, align 4, !tbaa !3
  %37 = load ptr, ptr %4, align 8, !tbaa !9
  %38 = call ptr @agattr(ptr noundef %35, i32 noundef %36, ptr noundef %37, ptr noundef @.str.12)
  %39 = load ptr, ptr %3, align 8, !tbaa !35
  %40 = getelementptr inbounds nuw %struct.item_s, ptr %39, i32 0, i32 1
  store ptr %38, ptr %40, align 8, !tbaa !14
  br label %41

41:                                               ; preds = %32, %22
  %42 = load ptr, ptr %3, align 8, !tbaa !35
  %43 = getelementptr inbounds nuw %struct.item_s, ptr %42, i32 0, i32 0
  store i32 266, ptr %43, align 8, !tbaa !36
  %44 = load ptr, ptr @G, align 8, !tbaa !18
  %45 = load ptr, ptr %4, align 8, !tbaa !9
  %46 = call i32 @agstrfree(ptr noundef %44, ptr noundef %45, i1 noundef zeroext false)
  br label %47

47:                                               ; preds = %41, %21
  %48 = load ptr, ptr %3, align 8, !tbaa !35
  %49 = getelementptr inbounds nuw %struct.item_s, ptr %48, i32 0, i32 3
  %50 = load ptr, ptr %49, align 8, !tbaa !39
  store ptr %50, ptr %3, align 8, !tbaa !35
  br label %9, !llvm.loop !69

51:                                               ; preds = %9
  call void @llvm.lifetime.end.p0(i64 8, ptr %4) #14
  call void @llvm.lifetime.end.p0(i64 8, ptr %3) #14
  ret void
}