; Function Attrs: nounwind uwtable
define internal fastcc void @bindattrs(i32 noundef range(i32 0, 3) %0) unnamed_addr #0 {
  %2 = load ptr, ptr @S, align 8, !tbaa !8
  %3 = getelementptr inbounds nuw i8, ptr %2, i64 48
  %.012 = load ptr, ptr %3, align 8, !tbaa !25
  %.not13 = icmp eq ptr %.012, null
  br i1 %.not13, label %._crit_edge, label %.lr.ph

.lr.ph:                                           ; preds = %1
  %4 = icmp eq i32 %0, 2
  br i1 %4, label %.lr.ph.split.us, label %.lr.ph.split

.lr.ph.split.us:                                  ; preds = %.lr.ph, %21
  %.014.us = phi ptr [ %.0.us, %21 ], [ %.012, %.lr.ph ]
  %5 = getelementptr inbounds nuw i8, ptr %.014.us, i64 8
  %6 = load ptr, ptr %5, align 8, !tbaa !7
  %7 = tail call i32 @strcmp(ptr noundef nonnull readonly dereferenceable(1) %6, ptr noundef nonnull dereferenceable(4) @Key) #24
  %8 = icmp eq i32 %7, 0
  br i1 %8, label %21, label %9

9:                                                ; preds = %.lr.ph.split.us
  %10 = load ptr, ptr @S, align 8, !tbaa !8
  %11 = load ptr, ptr %10, align 8, !tbaa !24
  %12 = tail call ptr @agattr(ptr noundef %11, i32 noundef 2, ptr noundef nonnull %6, ptr noundef null) #19
  store ptr %12, ptr %5, align 8, !tbaa !7
  %13 = icmp eq ptr %12, null
  br i1 %13, label %14, label %18

14:                                               ; preds = %9
  %15 = load ptr, ptr @S, align 8, !tbaa !8
  %16 = load ptr, ptr %15, align 8, !tbaa !24
  %17 = tail call ptr @agattr(ptr noundef %16, i32 noundef 2, ptr noundef nonnull %6, ptr noundef nonnull @.str.12) #19
  store ptr %17, ptr %5, align 8, !tbaa !7
  br label %18

18:                                               ; preds = %14, %9
  store i32 266, ptr %.014.us, align 8, !tbaa !26
  %19 = load ptr, ptr @G, align 8, !tbaa !19
  %20 = tail call i32 @agstrfree(ptr noundef %19, ptr noundef nonnull %6, i1 noundef zeroext false) #19
  br label %21

21:                                               ; preds = %18, %.lr.ph.split.us
  %22 = getelementptr inbounds nuw i8, ptr %.014.us, i64 24
  %.0.us = load ptr, ptr %22, align 8, !tbaa !25
  %.not.us = icmp eq ptr %.0.us, null
  br i1 %.not.us, label %._crit_edge, label %.lr.ph.split.us, !llvm.loop !40

.lr.ph.split:                                     ; preds = %.lr.ph, %33
  %.014 = phi ptr [ %.0, %33 ], [ %.012, %.lr.ph ]
  %23 = getelementptr inbounds nuw i8, ptr %.014, i64 8
  %24 = load ptr, ptr %23, align 8, !tbaa !7
  %25 = load ptr, ptr @S, align 8, !tbaa !8
  %26 = load ptr, ptr %25, align 8, !tbaa !24
  %27 = tail call ptr @agattr(ptr noundef %26, i32 noundef %0, ptr noundef %24, ptr noundef null) #19
  store ptr %27, ptr %23, align 8, !tbaa !7
  %28 = icmp eq ptr %27, null
  br i1 %28, label %29, label %33

29:                                               ; preds = %.lr.ph.split
  %30 = load ptr, ptr @S, align 8, !tbaa !8
  %31 = load ptr, ptr %30, align 8, !tbaa !24
  %32 = tail call ptr @agattr(ptr noundef %31, i32 noundef %0, ptr noundef %24, ptr noundef nonnull @.str.12) #19
  store ptr %32, ptr %23, align 8, !tbaa !7
  br label %33

33:                                               ; preds = %29, %.lr.ph.split
  store i32 266, ptr %.014, align 8, !tbaa !26
  %34 = load ptr, ptr @G, align 8, !tbaa !19
  %35 = tail call i32 @agstrfree(ptr noundef %34, ptr noundef %24, i1 noundef zeroext false) #19
  %36 = getelementptr inbounds nuw i8, ptr %.014, i64 24
  %.0 = load ptr, ptr %36, align 8, !tbaa !25
  %.not = icmp eq ptr %.0, null
  br i1 %.not, label %._crit_edge, label %.lr.ph.split, !llvm.loop !40

._crit_edge:                                      ; preds = %33, %21, %1
  ret void
}